; ModuleID = '19/48.c'
source_filename = "19/48.c"
target datalayout = "e-m:e-p270:32:32-p271:32:32-p272:64:64-i64:64-f80:128-n8:16:32:64-S128"
target triple = "x86_64-pc-linux-gnu"

@.str = private unnamed_addr constant [6 x i8] c"%s %s\00", align 1
@.str.1 = private unnamed_addr constant [4 x i8] c"%s \00", align 1
@.str.2 = private unnamed_addr constant [3 x i8] c"%c\00", align 1

; Function Attrs: noinline nounwind uwtable
define dso_local i32 @main() #0 {
  %1 = alloca i32, align 4
  %2 = alloca [100 x i8], align 16
  %3 = alloca [100 x i8], align 16
  %4 = alloca [100 x i8], align 16
  %5 = alloca i32, align 4
  %6 = alloca i32, align 4
  %7 = alloca i32, align 4
  store i32 0, i32* %1, align 4
  store i32 0, i32* %5, align 4
  %8 = getelementptr inbounds [100 x i8], [100 x i8]* %2, i64 0, i64 0
  %9 = call i32 (i8*, ...) bitcast (i32 (...)* @gets to i32 (i8*, ...)*)(i8* %8)
  %10 = getelementptr inbounds [100 x i8], [100 x i8]* %3, i64 0, i64 0
  %11 = getelementptr inbounds [100 x i8], [100 x i8]* %4, i64 0, i64 0
  %12 = call i32 (i8*, ...) @__isoc99_scanf(i8* getelementptr inbounds ([6 x i8], [6 x i8]* @.str, i64 0, i64 0), i8* %10, i8* %11)
  store i32 0, i32* %6, align 4
  br label %13

13:                                               ; preds = %116, %0
  %14 = load i32, i32* %6, align 4
  %15 = getelementptr inbounds [100 x i8], [100 x i8]* %2, i64 0, i64 0
  %16 = call i64 @strlen(i8* %15) #3
  %17 = trunc i64 %16 to i32
  %18 = icmp slt i32 %14, %17
  br i1 %18, label %19, label %119

19:                                               ; preds = %13
  %20 = load i32, i32* %6, align 4
  store i32 %20, i32* %7, align 4
  br label %21

21:                                               ; preds = %47, %19
  %22 = load i32, i32* %7, align 4
  %23 = load i32, i32* %6, align 4
  %24 = getelementptr inbounds [100 x i8], [100 x i8]* %3, i64 0, i64 0
  %25 = call i64 @strlen(i8* %24) #3
  %26 = trunc i64 %25 to i32
  %27 = add nsw i32 %23, %26
  %28 = icmp slt i32 %22, %27
  br i1 %28, label %29, label %50

29:                                               ; preds = %21
  %30 = load i32, i32* %7, align 4
  %31 = sext i32 %30 to i64
  %32 = getelementptr inbounds [100 x i8], [100 x i8]* %2, i64 0, i64 %31
  %33 = load i8, i8* %32, align 1
  %34 = sext i8 %33 to i32
  %35 = load i32, i32* %7, align 4
  %36 = load i32, i32* %6, align 4
  %37 = sub nsw i32 %35, %36
  %38 = sext i32 %37 to i64
  %39 = getelementptr inbounds [100 x i8], [100 x i8]* %3, i64 0, i64 %38
  %40 = load i8, i8* %39, align 1
  %41 = sext i8 %40 to i32
  %42 = icmp ne i32 %34, %41
  br i1 %42, label %43, label %44

43:                                               ; preds = %29
  br label %50

44:                                               ; preds = %29
  %45 = load i32, i32* %5, align 4
  %46 = add nsw i32 %45, 1
  store i32 %46, i32* %5, align 4
  br label %47

47:                                               ; preds = %44
  %48 = load i32, i32* %7, align 4
  %49 = add nsw i32 %48, 1
  store i32 %49, i32* %7, align 4
  br label %21

50:                                               ; preds = %43, %21
  %51 = load i32, i32* %6, align 4
  %52 = icmp eq i32 %51, 0
  br i1 %52, label %53, label %67

53:                                               ; preds = %50
  %54 = load i32, i32* %5, align 4
  %55 = getelementptr inbounds [100 x i8], [100 x i8]* %3, i64 0, i64 0
  %56 = call i64 @strlen(i8* %55) #3
  %57 = trunc i64 %56 to i32
  %58 = icmp eq i32 %54, %57
  br i1 %58, label %59, label %67

59:                                               ; preds = %53
  %60 = getelementptr inbounds [100 x i8], [100 x i8]* %4, i64 0, i64 0
  %61 = call i32 (i8*, ...) @printf(i8* getelementptr inbounds ([4 x i8], [4 x i8]* @.str.1, i64 0, i64 0), i8* %60)
  %62 = load i32, i32* %6, align 4
  %63 = getelementptr inbounds [100 x i8], [100 x i8]* %3, i64 0, i64 0
  %64 = call i64 @strlen(i8* %63) #3
  %65 = trunc i64 %64 to i32
  %66 = add nsw i32 %62, %65
  store i32 %66, i32* %6, align 4
  br label %115

67:                                               ; preds = %53, %50
  %68 = load i32, i32* %5, align 4
  %69 = getelementptr inbounds [100 x i8], [100 x i8]* %3, i64 0, i64 0
  %70 = call i64 @strlen(i8* %69) #3
  %71 = trunc i64 %70 to i32
  %72 = icmp eq i32 %68, %71
  br i1 %72, label %73, label %107

73:                                               ; preds = %67
  %74 = load i32, i32* %6, align 4
  %75 = load i32, i32* %5, align 4
  %76 = add nsw i32 %74, %75
  %77 = sext i32 %76 to i64
  %78 = getelementptr inbounds [100 x i8], [100 x i8]* %2, i64 0, i64 %77
  %79 = load i8, i8* %78, align 1
  %80 = sext i8 %79 to i32
  %81 = icmp eq i32 %80, 32
  br i1 %81, label %91, label %82

82:                                               ; preds = %73
  %83 = load i32, i32* %6, align 4
  %84 = load i32, i32* %5, align 4
  %85 = add nsw i32 %83, %84
  %86 = sext i32 %85 to i64
  %87 = getelementptr inbounds [100 x i8], [100 x i8]* %2, i64 0, i64 %86
  %88 = load i8, i8* %87, align 1
  %89 = sext i8 %88 to i32
  %90 = icmp eq i32 %89, 0
  br i1 %90, label %91, label %107

91:                                               ; preds = %82, %73
  %92 = load i32, i32* %6, align 4
  %93 = sub nsw i32 %92, 1
  %94 = sext i32 %93 to i64
  %95 = getelementptr inbounds [100 x i8], [100 x i8]* %2, i64 0, i64 %94
  %96 = load i8, i8* %95, align 1
  %97 = sext i8 %96 to i32
  %98 = icmp eq i32 %97, 32
  br i1 %98, label %99, label %107

99:                                               ; preds = %91
  %100 = getelementptr inbounds [100 x i8], [100 x i8]* %4, i64 0, i64 0
  %101 = call i32 (i8*, ...) @printf(i8* getelementptr inbounds ([4 x i8], [4 x i8]* @.str.1, i64 0, i64 0), i8* %100)
  %102 = load i32, i32* %6, align 4
  %103 = getelementptr inbounds [100 x i8], [100 x i8]* %3, i64 0, i64 0
  %104 = call i64 @strlen(i8* %103) #3
  %105 = trunc i64 %104 to i32
  %106 = add nsw i32 %102, %105
  store i32 %106, i32* %6, align 4
  br label %114

107:                                              ; preds = %91, %82, %67
  %108 = load i32, i32* %6, align 4
  %109 = sext i32 %108 to i64
  %110 = getelementptr inbounds [100 x i8], [100 x i8]* %2, i64 0, i64 %109
  %111 = load i8, i8* %110, align 1
  %112 = sext i8 %111 to i32
  %113 = call i32 (i8*, ...) @printf(i8* getelementptr inbounds ([3 x i8], [3 x i8]* @.str.2, i64 0, i64 0), i32 %112)
  br label %114

114:                                              ; preds = %107, %99
  br label %115

115:                                              ; preds = %114, %59
  store i32 0, i32* %5, align 4
  br label %116

116:                                              ; preds = %115
  %117 = load i32, i32* %6, align 4
  %118 = add nsw i32 %117, 1
  store i32 %118, i32* %6, align 4
  br label %13

119:                                              ; preds = %13
  ret i32 0
}

declare dso_local i32 @gets(...) #1

declare dso_local i32 @__isoc99_scanf(i8*, ...) #1

; Function Attrs: nounwind readonly
declare dso_local i64 @strlen(i8*) #2

declare dso_local i32 @printf(i8*, ...) #1


!llvm.module.flags = !{!0}
!llvm.ident = !{!1}

!0 = !{i32 1, !"wchar_size", i32 4}
!1 = !{!"clang version 10.0.0-4ubuntu1 "}
