; ModuleID = 'source-C-CXX/18/48.c'
source_filename = "source-C-CXX/18/48.c"
target datalayout = "e-m:e-p270:32:32-p271:32:32-p272:64:64-i64:64-f80:128-n8:16:32:64-S128"
target triple = "x86_64-pc-linux-gnu"

@.str = private unnamed_addr constant [6 x i8] c"%s %s\00", align 1
@.str.1 = private unnamed_addr constant [4 x i8] c"%s \00", align 1

; Function Attrs: nounwind sspstrong uwtable
define dso_local i32 @main() local_unnamed_addr #0 {
  %1 = alloca [100 x i8], align 16
  %2 = alloca [100 x i8], align 16
  %3 = alloca [100 x i8], align 16
  %4 = getelementptr inbounds [100 x i8], [100 x i8]* %1, i64 0, i64 0
  call void @llvm.lifetime.start.p0i8(i64 100, i8* nonnull %4) #6
  %5 = getelementptr inbounds [100 x i8], [100 x i8]* %2, i64 0, i64 0
  call void @llvm.lifetime.start.p0i8(i64 100, i8* nonnull %5) #6
  %6 = getelementptr inbounds [100 x i8], [100 x i8]* %3, i64 0, i64 0
  call void @llvm.lifetime.start.p0i8(i64 100, i8* nonnull %6) #6
  %7 = call i32 (i8*, ...) bitcast (i32 (...)* @gets to i32 (i8*, ...)*)(i8* nonnull %4) #6
  %8 = call i32 (i8*, ...) @__isoc99_scanf(i8* getelementptr inbounds ([6 x i8], [6 x i8]* @.str, i64 0, i64 0), i8* nonnull %5, i8* nonnull %6)
  %9 = call i64 @strlen(i8* noundef nonnull %4) #7
  %10 = trunc i64 %9 to i32
  %11 = icmp sgt i32 %10, 0
  br i1 %11, label %12, label %71

12:                                               ; preds = %0, %65
  %13 = phi i32 [ %67, %65 ], [ 0, %0 ]
  %14 = call i64 @strlen(i8* noundef nonnull %5) #7
  %15 = trunc i64 %14 to i32
  %16 = add nsw i32 %13, %15
  %17 = icmp sgt i32 %15, 0
  br i1 %17, label %18, label %34

18:                                               ; preds = %12
  %19 = sext i32 %13 to i64
  %20 = sext i32 %16 to i64
  br label %21

21:                                               ; preds = %18, %30
  %22 = phi i64 [ %19, %18 ], [ %32, %30 ]
  %23 = phi i32 [ 0, %18 ], [ %31, %30 ]
  %24 = getelementptr inbounds [100 x i8], [100 x i8]* %1, i64 0, i64 %22
  %25 = load i8, i8* %24, align 1, !tbaa !5
  %26 = sub nsw i64 %22, %19
  %27 = getelementptr inbounds [100 x i8], [100 x i8]* %2, i64 0, i64 %26
  %28 = load i8, i8* %27, align 1, !tbaa !5
  %29 = icmp eq i8 %25, %28
  br i1 %29, label %30, label %34

30:                                               ; preds = %21
  %31 = add nuw nsw i32 %23, 1
  %32 = add nsw i64 %22, 1
  %33 = icmp slt i64 %32, %20
  br i1 %33, label %21, label %34, !llvm.loop !8

34:                                               ; preds = %30, %21, %12
  %35 = phi i32 [ 0, %12 ], [ %23, %21 ], [ %31, %30 ]
  %36 = icmp eq i32 %13, 0
  %37 = icmp eq i32 %35, %15
  %38 = select i1 %36, i1 %37, i1 false
  br i1 %38, label %39, label %43

39:                                               ; preds = %34
  %40 = call i32 (i8*, ...) @printf(i8* nonnull dereferenceable(1) getelementptr inbounds ([4 x i8], [4 x i8]* @.str.1, i64 0, i64 0), i8* nonnull %6)
  %41 = call i64 @strlen(i8* noundef nonnull %5) #7
  %42 = trunc i64 %41 to i32
  br label %65

43:                                               ; preds = %34
  br i1 %37, label %44, label %59

44:                                               ; preds = %43
  %45 = sext i32 %16 to i64
  %46 = getelementptr inbounds [100 x i8], [100 x i8]* %1, i64 0, i64 %45
  %47 = load i8, i8* %46, align 1, !tbaa !5
  switch i8 %47, label %59 [
    i8 32, label %48
    i8 0, label %48
  ]

48:                                               ; preds = %44, %44
  %49 = add nsw i32 %13, -1
  %50 = sext i32 %49 to i64
  %51 = getelementptr inbounds [100 x i8], [100 x i8]* %1, i64 0, i64 %50
  %52 = load i8, i8* %51, align 1, !tbaa !5
  %53 = icmp eq i8 %52, 32
  br i1 %53, label %54, label %59

54:                                               ; preds = %48
  %55 = call i32 (i8*, ...) @printf(i8* nonnull dereferenceable(1) getelementptr inbounds ([4 x i8], [4 x i8]* @.str.1, i64 0, i64 0), i8* nonnull %6)
  %56 = call i64 @strlen(i8* noundef nonnull %5) #7
  %57 = trunc i64 %56 to i32
  %58 = add nsw i32 %13, %57
  br label %65

59:                                               ; preds = %44, %48, %43
  %60 = sext i32 %13 to i64
  %61 = getelementptr inbounds [100 x i8], [100 x i8]* %1, i64 0, i64 %60
  %62 = load i8, i8* %61, align 1, !tbaa !5
  %63 = sext i8 %62 to i32
  %64 = call i32 @putchar(i32 %63)
  br label %65

65:                                               ; preds = %54, %59, %39
  %66 = phi i32 [ %42, %39 ], [ %58, %54 ], [ %13, %59 ]
  %67 = add nsw i32 %66, 1
  %68 = call i64 @strlen(i8* noundef nonnull %4) #7
  %69 = trunc i64 %68 to i32
  %70 = icmp slt i32 %67, %69
  br i1 %70, label %12, label %71, !llvm.loop !10

71:                                               ; preds = %65, %0
  call void @llvm.lifetime.end.p0i8(i64 100, i8* nonnull %6) #6
  call void @llvm.lifetime.end.p0i8(i64 100, i8* nonnull %5) #6
  call void @llvm.lifetime.end.p0i8(i64 100, i8* nonnull %4) #6
  ret i32 0
}

; Function Attrs: argmemonly mustprogress nofree nosync nounwind willreturn
declare void @llvm.lifetime.start.p0i8(i64 immarg, i8* nocapture) #1

declare i32 @gets(...) local_unnamed_addr #2

; Function Attrs: nofree nounwind
declare noundef i32 @__isoc99_scanf(i8* nocapture noundef readonly, ...) local_unnamed_addr #3

; Function Attrs: argmemonly mustprogress nofree nounwind readonly willreturn
declare i64 @strlen(i8* nocapture) local_unnamed_addr #4

; Function Attrs: nofree nounwind
declare noundef i32 @printf(i8* nocapture noundef readonly, ...) local_unnamed_addr #3

; Function Attrs: argmemonly mustprogress nofree nosync nounwind willreturn
declare void @llvm.lifetime.end.p0i8(i64 immarg, i8* nocapture) #1

; Function Attrs: nofree nounwind
declare noundef i32 @putchar(i32 noundef) local_unnamed_addr #5


!llvm.module.flags = !{!0, !1, !2, !3}
!llvm.ident = !{!4}

!0 = !{i32 1, !"wchar_size", i32 4}
!1 = !{i32 7, !"PIC Level", i32 2}
!2 = !{i32 7, !"PIE Level", i32 2}
!3 = !{i32 7, !"uwtable", i32 1}
!4 = !{!"clang version 13.0.0"}
!5 = !{!6, !6, i64 0}
!6 = !{!"omnipotent char", !7, i64 0}
!7 = !{!"Simple C/C++ TBAA"}
!8 = distinct !{!8, !9}
!9 = !{!"llvm.loop.mustprogress"}
!10 = distinct !{!10, !9}
